; ModuleID = '49/189.c'
source_filename = "49/189.c"
target datalayout = "e-m:e-p270:32:32-p271:32:32-p272:64:64-i64:64-f80:128-n8:16:32:64-S128"
target triple = "x86_64-pc-linux-gnu"

; Function Attrs: noinline nounwind uwtable
define dso_local i32 @main() #0 {
  %1 = alloca i32, align 4
  %2 = alloca i32, align 4
  %3 = alloca i32, align 4
  %4 = alloca i32, align 4
  %5 = alloca i32, align 4
  %6 = alloca i32, align 4
  %7 = alloca i32, align 4
  %8 = alloca [501 x i8], align 16
  %9 = alloca [501 x i8], align 16
  store i32 0, i32* %1, align 4
  store i32 0, i32* %3, align 4
  %10 = getelementptr inbounds [501 x i8], [501 x i8]* %8, i64 0, i64 0
  %11 = call i32 (i8*, ...) bitcast (i32 (...)* @gets to i32 (i8*, ...)*)(i8* %10)
  store i32 2, i32* %7, align 4
  br label %12

12:                                               ; preds = %88, %0
  %13 = load i32, i32* %7, align 4
  %14 = icmp sle i32 %13, 500
  br i1 %14, label %15, label %91

15:                                               ; preds = %12
  store i32 0, i32* %2, align 4
  store i32 0, i32* %2, align 4
  br label %16

16:                                               ; preds = %84, %15
  %17 = load i32, i32* %2, align 4
  %18 = sext i32 %17 to i64
  %19 = getelementptr inbounds [501 x i8], [501 x i8]* %8, i64 0, i64 %18
  %20 = load i8, i8* %19, align 1
  %21 = sext i8 %20 to i32
  %22 = icmp ne i32 %21, 0
  br i1 %22, label %23, label %87

23:                                               ; preds = %16
  store i32 0, i32* %5, align 4
  %24 = load i32, i32* %2, align 4
  store i32 %24, i32* %6, align 4
  br label %25

25:                                               ; preds = %42, %23
  %26 = load i32, i32* %6, align 4
  %27 = load i32, i32* %2, align 4
  %28 = load i32, i32* %7, align 4
  %29 = add nsw i32 %27, %28
  %30 = sub nsw i32 %29, 1
  %31 = icmp sle i32 %26, %30
  br i1 %31, label %32, label %45

32:                                               ; preds = %25
  %33 = load i32, i32* %6, align 4
  %34 = sext i32 %33 to i64
  %35 = getelementptr inbounds [501 x i8], [501 x i8]* %8, i64 0, i64 %34
  %36 = load i8, i8* %35, align 1
  %37 = load i32, i32* %5, align 4
  %38 = sext i32 %37 to i64
  %39 = getelementptr inbounds [501 x i8], [501 x i8]* %9, i64 0, i64 %38
  store i8 %36, i8* %39, align 1
  %40 = load i32, i32* %5, align 4
  %41 = add nsw i32 %40, 1
  store i32 %41, i32* %5, align 4
  br label %42

42:                                               ; preds = %32
  %43 = load i32, i32* %6, align 4
  %44 = add nsw i32 %43, 1
  store i32 %44, i32* %6, align 4
  br label %25

45:                                               ; preds = %25
  %46 = load i32, i32* %5, align 4
  %47 = sext i32 %46 to i64
  %48 = getelementptr inbounds [501 x i8], [501 x i8]* %9, i64 0, i64 %47
  store i8 0, i8* %48, align 1
  store i32 0, i32* %3, align 4
  store i32 0, i32* %4, align 4
  br label %49

49:                                               ; preds = %76, %45
  %50 = load i32, i32* %4, align 4
  %51 = load i32, i32* %7, align 4
  %52 = sub nsw i32 %51, 1
  %53 = sdiv i32 %52, 2
  %54 = icmp sle i32 %50, %53
  br i1 %54, label %55, label %77

55:                                               ; preds = %49
  %56 = load i32, i32* %4, align 4
  %57 = sext i32 %56 to i64
  %58 = getelementptr inbounds [501 x i8], [501 x i8]* %9, i64 0, i64 %57
  %59 = load i8, i8* %58, align 1
  %60 = sext i8 %59 to i32
  %61 = load i32, i32* %2, align 4
  %62 = load i32, i32* %7, align 4
  %63 = add nsw i32 %61, %62
  %64 = sub nsw i32 %63, 1
  %65 = load i32, i32* %4, align 4
  %66 = sub nsw i32 %64, %65
  %67 = sext i32 %66 to i64
  %68 = getelementptr inbounds [501 x i8], [501 x i8]* %8, i64 0, i64 %67
  %69 = load i8, i8* %68, align 1
  %70 = sext i8 %69 to i32
  %71 = icmp eq i32 %60, %70
  br i1 %71, label %72, label %75

72:                                               ; preds = %55
  %73 = load i32, i32* %4, align 4
  %74 = add nsw i32 %73, 1
  store i32 %74, i32* %4, align 4
  br label %76

75:                                               ; preds = %55
  store i32 1, i32* %3, align 4
  br label %77

76:                                               ; preds = %72
  br label %49

77:                                               ; preds = %75, %49
  %78 = load i32, i32* %3, align 4
  %79 = icmp eq i32 %78, 0
  br i1 %79, label %80, label %83

80:                                               ; preds = %77
  %81 = getelementptr inbounds [501 x i8], [501 x i8]* %9, i64 0, i64 0
  %82 = call i32 @puts(i8* %81)
  br label %83

83:                                               ; preds = %80, %77
  br label %84

84:                                               ; preds = %83
  %85 = load i32, i32* %2, align 4
  %86 = add nsw i32 %85, 1
  store i32 %86, i32* %2, align 4
  br label %16

87:                                               ; preds = %16
  br label %88

88:                                               ; preds = %87
  %89 = load i32, i32* %7, align 4
  %90 = add nsw i32 %89, 1
  store i32 %90, i32* %7, align 4
  br label %12

91:                                               ; preds = %12
  ret i32 0
}

declare dso_local i32 @gets(...) #1

declare dso_local i32 @puts(i8*) #1


!llvm.module.flags = !{!0}
!llvm.ident = !{!1}

!0 = !{i32 1, !"wchar_size", i32 4}
!1 = !{!"clang version 10.0.0-4ubuntu1 "}
